; Function Attrs: nounwind uwtable
define dso_local range(i64 1, 0) i64 @Curl_bufq_read(ptr noundef captures(none) %0, ptr noundef writeonly captures(none) %1, i64 noundef %2, ptr noundef writeonly captures(none) initializes((0, 4)) %3) local_unnamed_addr #2 {
  store i32 0, ptr %3, align 4
  %.not27 = icmp eq i64 %2, 0
  br i1 %.not27, label %.critedge.thread, label %.lr.ph

.lr.ph:                                           ; preds = %4
  %5 = getelementptr inbounds nuw i8, ptr %0, i64 8
  %6 = getelementptr inbounds nuw i8, ptr %0, i64 24
  %7 = getelementptr inbounds nuw i8, ptr %0, i64 32
  %8 = getelementptr inbounds nuw i8, ptr %0, i64 40
  %9 = getelementptr inbounds nuw i8, ptr %0, i64 56
  %10 = getelementptr inbounds nuw i8, ptr %0, i64 16
  %.pre = load ptr, ptr %0, align 8
  br label %11

11:                                               ; preds = %.lr.ph, %prune_head.exit
  %12 = phi ptr [ %.pre, %.lr.ph ], [ %68, %prune_head.exit ]
  %.01730 = phi i64 [ 0, %.lr.ph ], [ %26, %prune_head.exit ]
  %.01829 = phi ptr [ %1, %.lr.ph ], [ %27, %prune_head.exit ]
  %.02028 = phi i64 [ %2, %.lr.ph ], [ %28, %prune_head.exit ]
  %.not24 = icmp eq ptr %12, null
  br i1 %.not24, label %.critedge, label %13

13:                                               ; preds = %11
  %14 = getelementptr inbounds nuw i8, ptr %12, i64 32
  %15 = getelementptr inbounds nuw i8, ptr %12, i64 16
  %16 = load i64, ptr %15, align 8
  %17 = getelementptr inbounds [1 x i8], ptr %14, i64 0, i64 %16
  %18 = getelementptr inbounds nuw i8, ptr %12, i64 24
  %19 = load i64, ptr %18, align 8
  %20 = sub i64 %19, %16
  %.not.i = icmp eq i64 %20, 0
  br i1 %.not.i, label %chunk_read.exit, label %21

21:                                               ; preds = %13
  %.not21.i = icmp ugt i64 %20, %.02028
  br i1 %.not21.i, label %23, label %22

22:                                               ; preds = %21
  tail call void @llvm.memcpy.p0.p0.i64(ptr align 1 %.01829, ptr nonnull align 1 %17, i64 %20, i1 false)
  tail call void @llvm.memset.p0.i64(ptr noundef nonnull align 8 dereferenceable(16) %15, i8 0, i64 16, i1 false)
  br label %chunk_read.exit

23:                                               ; preds = %21
  tail call void @llvm.memcpy.p0.p0.i64(ptr noundef nonnull align 1 dereferenceable(1) %.01829, ptr noundef nonnull align 1 dereferenceable(1) %17, i64 range(i64 1, 0) %.02028, i1 false)
  %24 = load i64, ptr %15, align 8
  %25 = add i64 %24, %.02028
  store i64 %25, ptr %15, align 8
  br label %chunk_read.exit

chunk_read.exit:                                  ; preds = %13, %22, %23
  %.0.i = phi i64 [ %20, %22 ], [ %.02028, %23 ], [ 0, %13 ]
  %26 = add i64 %.0.i, %.01730
  %27 = getelementptr inbounds i8, ptr %.01829, i64 %.0.i
  %28 = sub i64 %.02028, %.0.i
  %29 = load ptr, ptr %0, align 8
  %.not27.i = icmp eq ptr %29, null
  br i1 %.not27.i, label %prune_head.exit, label %.lr.ph.i

.lr.ph.i:                                         ; preds = %chunk_read.exit, %66
  %30 = phi ptr [ %67, %66 ], [ %29, %chunk_read.exit ]
  %31 = getelementptr i8, ptr %30, i64 16
  %.val.i = load i64, ptr %31, align 8
  %32 = getelementptr i8, ptr %30, i64 24
  %.val25.i = load i64, ptr %32, align 8
  %.not26.i = icmp ult i64 %.val.i, %.val25.i
  br i1 %.not26.i, label %prune_head.exit, label %33

33:                                               ; preds = %.lr.ph.i
  %34 = load ptr, ptr %30, align 8
  store ptr %34, ptr %0, align 8
  %35 = load ptr, ptr %5, align 8
  %36 = icmp eq ptr %35, %30
  br i1 %36, label %37, label %38

37:                                               ; preds = %33
  store ptr %34, ptr %5, align 8
  br label %38

38:                                               ; preds = %37, %33
  %39 = load ptr, ptr %6, align 8
  %.not23.i = icmp eq ptr %39, null
  br i1 %.not23.i, label %53, label %40

40:                                               ; preds = %38
  %41 = getelementptr inbounds nuw i8, ptr %39, i64 16
  %42 = load i64, ptr %41, align 8
  %43 = getelementptr inbounds nuw i8, ptr %39, i64 24
  %44 = load i64, ptr %43, align 8
  %.not.i.i = icmp ult i64 %42, %44
  br i1 %.not.i.i, label %47, label %45

45:                                               ; preds = %40
  %46 = load ptr, ptr @Curl_cfree, align 8
  tail call void %46(ptr noundef nonnull %30) #11
  br label %bufcp_put.exit.i

47:                                               ; preds = %40
  store ptr null, ptr %30, align 8
  tail call void @llvm.memset.p0.i64(ptr noundef nonnull align 8 dereferenceable(16) %31, i8 0, i64 16, i1 false)
  %48 = load ptr, ptr %39, align 8
  store ptr %48, ptr %30, align 8
  store ptr %30, ptr %39, align 8
  %49 = load i64, ptr %41, align 8
  %50 = add i64 %49, 1
  store i64 %50, ptr %41, align 8
  br label %bufcp_put.exit.i

bufcp_put.exit.i:                                 ; preds = %47, %45
  %51 = load i64, ptr %7, align 8
  %52 = add i64 %51, -1
  store i64 %52, ptr %7, align 8
  br label %66

53:                                               ; preds = %38
  %54 = load i64, ptr %7, align 8
  %55 = load i64, ptr %8, align 8
  %56 = icmp ugt i64 %54, %55
  br i1 %56, label %60, label %57

57:                                               ; preds = %53
  %58 = load i32, ptr %9, align 8
  %59 = and i32 %58, 2
  %.not24.i = icmp eq i32 %59, 0
  br i1 %.not24.i, label %64, label %60

60:                                               ; preds = %57, %53
  %61 = load ptr, ptr @Curl_cfree, align 8
  tail call void %61(ptr noundef nonnull %30) #11
  %62 = load i64, ptr %7, align 8
  %63 = add i64 %62, -1
  store i64 %63, ptr %7, align 8
  br label %66

64:                                               ; preds = %57
  %65 = load ptr, ptr %10, align 8
  store ptr %65, ptr %30, align 8
  store ptr %30, ptr %10, align 8
  br label %66

66:                                               ; preds = %64, %60, %bufcp_put.exit.i
  %67 = load ptr, ptr %0, align 8
  %.not.i26 = icmp eq ptr %67, null
  br i1 %.not.i26, label %prune_head.exit, label %.lr.ph.i, !llvm.loop !11

prune_head.exit:                                  ; preds = %.lr.ph.i, %66, %chunk_read.exit
  %68 = phi ptr [ null, %chunk_read.exit ], [ %30, %.lr.ph.i ], [ null, %66 ]
  %.not = icmp eq i64 %28, 0
  br i1 %.not, label %.critedge, label %11, !llvm.loop !12

.critedge:                                        ; preds = %11, %prune_head.exit
  %.017.lcssa = phi i64 [ %.01730, %11 ], [ %26, %prune_head.exit ]
  %69 = icmp eq i64 %.017.lcssa, 0
  br i1 %69, label %.critedge.thread, label %70

.critedge.thread:                                 ; preds = %4, %.critedge
  store i32 81, ptr %3, align 4
  br label %70

70:                                               ; preds = %.critedge, %.critedge.thread
  %.0 = phi i64 [ -1, %.critedge.thread ], [ %.017.lcssa, %.critedge ]
  ret i64 %.0
}